(lp0
(lp1
ccopy_reg
_reconstructor
p2
(cnumpy.lib.polynomial
poly1d
p3
c__builtin__
object
p4
Ntp5
Rp6
(dp7
S'coeffs'
p8
cnumpy.core.multiarray
_reconstruct
p9
(cnumpy
ndarray
p10
(I0
tp11
S'b'
p12
tp13
Rp14
(I1
(I3
tp15
cnumpy
dtype
p16
(S'f8'
p17
I0
I1
tp18
Rp19
(I3
S'<'
p20
NNNI-1
I-1
I0
tp21
bI00
S'\x86L3\xc4\x19\x19\xd6\xbf\x84]\x97\x1d\xd2\xde\xee?\r\x0c\xbc<,\x08\x00@'
p22
tp23
bsS'variable'
p24
S'x'
p25
sS'order'
p26
I2
sbag2
(g3
g4
Ntp27
Rp28
(dp29
g8
g9
(g10
(I0
tp30
g12
tp31
Rp32
(I1
(I1
tp33
g19
I00
S'9\xd6\xb0\xe6\xeeE\xc8?'
p34
tp35
bsg24
g25
sg26
I0
sbaa.