(lp0
(lp1
ccopy_reg
_reconstructor
p2
(cnumpy.lib.polynomial
poly1d
p3
c__builtin__
object
p4
Ntp5
Rp6
(dp7
S'coeffs'
p8
cnumpy.core.multiarray
_reconstruct
p9
(cnumpy
ndarray
p10
(I0
tp11
S'b'
p12
tp13
Rp14
(I1
(I3
tp15
cnumpy
dtype
p16
(S'f8'
p17
I0
I1
tp18
Rp19
(I3
S'<'
p20
NNNI-1
I-1
I0
tp21
bI00
S'((w\xbd\xf0\xa1\xd6\xbf\xab\x17\x92\xfcT6\xf3?9>\xeeq\x8c#\xfc?'
p22
tp23
bsS'variable'
p24
S'x'
p25
sS'order'
p26
I2
sbag2
(g3
g4
Ntp27
Rp28
(dp29
g8
g9
(g10
(I0
tp30
g12
tp31
Rp32
(I1
(I1
tp33
g19
I00
S',#\r\xdca\xfa\xc0?'
p34
tp35
bsg24
g25
sg26
I0
sbaa(lp36
g2
(g3
g4
Ntp37
Rp38
(dp39
g8
g9
(g10
(I0
tp40
g12
tp41
Rp42
(I1
(I3
tp43
g19
I00
S'\xe2\x84\xb3\x8a\x99\x1d\xfb\xbfmr\tW\xe3\xc3\x08@\x8a\xeb\xe2W\xdaq\xf0?'
p44
tp45
bsg24
g25
sg26
I2
sbag2
(g3
g4
Ntp46
Rp47
(dp48
g8
g9
(g10
(I0
tp49
g12
tp50
Rp51
(I1
(I1
tp52
g19
I00
S'\xd0\xf6\xe8\xcd\xc1\\\xda?'
p53
tp54
bsg24
g25
sg26
I0
sbaa(lp55
g2
(g3
g4
Ntp56
Rp57
(dp58
g8
g9
(g10
(I0
tp59
g12
tp60
Rp61
(I1
(I3
tp62
g19
I00
S'<\x9e\x80\x8f\xa0\xc9\x00\xc08yd\xablT\x0f@\xa8\xcc\xe4\xfb~\xc4\xe3?'
p63
tp64
bsg24
g25
sg26
I2
sbag2
(g3
g4
Ntp65
Rp66
(dp67
g8
g9
(g10
(I0
tp68
g12
tp69
Rp70
(I1
(I1
tp71
g19
I00
S'\t\x03\xcb<\xa1\xa0\xbd?'
p72
tp73
bsg24
g25
sg26
I0
sbaa(lp74
g2
(g3
g4
Ntp75
Rp76
(dp77
g8
g9
(g10
(I0
tp78
g12
tp79
Rp80
(I1
(I3
tp81
g19
I00
S'\x15\x86\xfa\xb9\xa4G\x0e\xc0\xa6\xa7\x85j\xdc\x9d\x17@N_s\xddr\xaa\xbc\xbf'
p82
tp83
bsg24
g25
sg26
I2
sbag2
(g3
g4
Ntp84
Rp85
(dp86
g8
g9
(g10
(I0
tp87
g12
tp88
Rp89
(I1
(I1
tp90
g19
I00
S'\x80C\x9e\x8f\xf7\xde\xd0?'
p91
tp92
bsg24
g25
sg26
I0
sbaa(lp93
g2
(g3
g4
Ntp94
Rp95
(dp96
g8
g9
(g10
(I0
tp97
g12
tp98
Rp99
(I1
(I3
tp100
g19
I00
S'\x9d\xec_\xda\x8b\x14\x05\xc0\x1e/\x07\x8c\x93\xd0\x11@x\x95\xb3KF\r\xd7?'
p101
tp102
bsg24
g25
sg26
I2
sbag2
(g3
g4
Ntp103
Rp104
(dp105
g8
g9
(g10
(I0
tp106
g12
tp107
Rp108
(I1
(I1
tp109
g19
I00
S'\n\xaa\x85t\x13\xd0\xc6?'
p110
tp111
bsg24
g25
sg26
I0
sbaa(lp112
g2
(g3
g4
Ntp113
Rp114
(dp115
g8
g9
(g10
(I0
tp116
g12
tp117
Rp118
(I1
(I3
tp119
g19
I00
S'%))\x19\xed\x9e\x00\xc0X\x13\x8e\x10\xbc\xb4\x0f@\xceZ\x86\xd0\x11j\xd0?'
p120
tp121
bsg24
g25
sg26
I2
sbag2
(g3
g4
Ntp122
Rp123
(dp124
g8
g9
(g10
(I0
tp125
g12
tp126
Rp127
(I1
(I1
tp128
g19
I00
S'\xae.\x92\x1e\xb2\xc5\xc0?'
p129
tp130
bsg24
g25
sg26
I0
sbaa(lp131
g2
(g3
g4
Ntp132
Rp133
(dp134
g8
g9
(g10
(I0
tp135
g12
tp136
Rp137
(I1
(I3
tp138
g19
I00
S'RhA9x\xf9\x08\xc0\xb8\xca\x88x\xf1\xd5\x13@\xd6\xd4\xc1\x00\xcc\xc7\xb4?'
p139
tp140
bsg24
g25
sg26
I2
sbag2
(g3
g4
Ntp141
Rp142
(dp143
g8
g9
(g10
(I0
tp144
g12
tp145
Rp146
(I1
(I1
tp147
g19
I00
S'\xfe\x9a\x1c \xc74\xd3?'
p148
tp149
bsg24
g25
sg26
I0
sbaa(lp150
g2
(g3
g4
Ntp151
Rp152
(dp153
g8
g9
(g10
(I0
tp154
g12
tp155
Rp156
(I1
(I3
tp157
g19
I00
S'\x16\x0e5\x8f\x0b\xe52\xc0")X\x08\xbf\xfd5@N\x02\x0c<\xb0T\x12\xc0'
p158
tp159
bsg24
g25
sg26
I2
sbag2
(g3
g4
Ntp160
Rp161
(dp162
g8
g9
(g10
(I0
tp163
g12
tp164
Rp165
(I1
(I1
tp166
g19
I00
S'\x8a\xe6z\xe3\x03D\xd5?'
p167
tp168
bsg24
g25
sg26
I0
sbaa(lp169
g2
(g3
g4
Ntp170
Rp171
(dp172
g8
g9
(g10
(I0
tp173
g12
tp174
Rp175
(I1
(I3
tp176
g19
I00
S'i\xa9\x98\xf4=\xeb0\xc0\x98\x97\x92\x1db\xef3@\xfe\xcb\xd4\xa4\xd2\xcb\x10\xc0'
p177
tp178
bsg24
g25
sg26
I2
sbag2
(g3
g4
Ntp179
Rp180
(dp181
g8
g9
(g10
(I0
tp182
g12
tp183
Rp184
(I1
(I1
tp185
g19
I00
S'\x99\xc4\xcd\xa9\xb6A\xd8?'
p186
tp187
bsg24
g25
sg26
I0
sbaa(lp188
g2
(g3
g4
Ntp189
Rp190
(dp191
g8
g9
(g10
(I0
tp192
g12
tp193
Rp194
(I1
(I3
tp195
g19
I00
S'\xc0\xdbiL\xf5\xf0H\xc0~\xf8e<\x9cSK@H\xcb\xc2\x18X\xf3*\xc0'
p196
tp197
bsg24
g25
sg26
I2
sbag2
(g3
g4
Ntp198
Rp199
(dp200
g8
g9
(g10
(I0
tp201
g12
tp202
Rp203
(I1
(I1
tp204
g19
I00
S'\xd4Y\xd9z=\x8c\xda?'
p205
tp206
bsg24
g25
sg26
I0
sbaa.