(lp0
(lp1
ccopy_reg
_reconstructor
p2
(cnumpy.lib.polynomial
poly1d
p3
c__builtin__
object
p4
Ntp5
Rp6
(dp7
S'coeffs'
p8
cnumpy.core.multiarray
_reconstruct
p9
(cnumpy
ndarray
p10
(I0
tp11
S'b'
p12
tp13
Rp14
(I1
(I3
tp15
cnumpy
dtype
p16
(S'f8'
p17
I0
I1
tp18
Rp19
(I3
S'<'
p20
NNNI-1
I-1
I0
tp21
bI00
S'\xa2\x11\x7f7\x1e\x8b\xd7\xbf\t\xab\x82\xd6`\xb0\xf3?\x0c\xfb\x99z\xa5\xec\xfb?'
p22
tp23
bsS'variable'
p24
S'x'
p25
sS'order'
p26
I2
sbag2
(g3
g4
Ntp27
Rp28
(dp29
g8
g9
(g10
(I0
tp30
g12
tp31
Rp32
(I1
(I1
tp33
g19
I00
S'G#\x15\xcdR\xea\xc0?'
p34
tp35
bsg24
g25
sg26
I0
sbaa(lp36
g2
(g3
g4
Ntp37
Rp38
(dp39
g8
g9
(g10
(I0
tp40
g12
tp41
Rp42
(I1
(I3
tp43
g19
I00
S'<\x9e\x80\x8f\xa0\xc9\x00\xc08yd\xablT\x0f@\xa8\xcc\xe4\xfb~\xc4\xe3?'
p44
tp45
bsg24
g25
sg26
I2
sbag2
(g3
g4
Ntp46
Rp47
(dp48
g8
g9
(g10
(I0
tp49
g12
tp50
Rp51
(I1
(I1
tp52
g19
I00
S'\t\x03\xcb<\xa1\xa0\xbd?'
p53
tp54
bsg24
g25
sg26
I0
sbaa(lp55
g2
(g3
g4
Ntp56
Rp57
(dp58
g8
g9
(g10
(I0
tp59
g12
tp60
Rp61
(I1
(I3
tp62
g19
I00
S'\xc2\x0f\x1cN]\x1d\x08\xc00\xdb\x8c\xfbU\x04\x14@f\x0e\x9b|m\xdc\xc6?'
p63
tp64
bsg24
g25
sg26
I2
sbag2
(g3
g4
Ntp65
Rp66
(dp67
g8
g9
(g10
(I0
tp68
g12
tp69
Rp70
(I1
(I1
tp71
g19
I00
S'\x025j\xff9h\xc6?'
p72
tp73
bsg24
g25
sg26
I0
sbaa(lp74
g2
(g3
g4
Ntp75
Rp76
(dp77
g8
g9
(g10
(I0
tp78
g12
tp79
Rp80
(I1
(I3
tp81
g19
I00
S'RhA9x\xf9\x08\xc0\xb8\xca\x88x\xf1\xd5\x13@\xd6\xd4\xc1\x00\xcc\xc7\xb4?'
p82
tp83
bsg24
g25
sg26
I2
sbag2
(g3
g4
Ntp84
Rp85
(dp86
g8
g9
(g10
(I0
tp87
g12
tp88
Rp89
(I1
(I1
tp90
g19
I00
S'\xfe\x9a\x1c \xc74\xd3?'
p91
tp92
bsg24
g25
sg26
I0
sbaa(lp93
g2
(g3
g4
Ntp94
Rp95
(dp96
g8
g9
(g10
(I0
tp97
g12
tp98
Rp99
(I1
(I3
tp100
g19
I00
S'4\x08\xbb\x9ae\x070\xc0H\x05\xc3]P\xf42@\xd1\xe9\xa3\xef\x1d\x95\x0f\xc0'
p101
tp102
bsg24
g25
sg26
I2
sbag2
(g3
g4
Ntp103
Rp104
(dp105
g8
g9
(g10
(I0
tp106
g12
tp107
Rp108
(I1
(I1
tp109
g19
I00
S'\x19\xf8\x13\xd9\x94\xa8\xd6?'
p110
tp111
bsg24
g25
sg26
I0
sbaa(lp112
g2
(g3
g4
Ntp113
Rp114
(dp115
g8
g9
(g10
(I0
tp116
g12
tp117
Rp118
(I1
(I3
tp119
g19
I00
S'\xc0\xdbiL\xf5\xf0H\xc0~\xf8e<\x9cSK@H\xcb\xc2\x18X\xf3*\xc0'
p120
tp121
bsg24
g25
sg26
I2
sbag2
(g3
g4
Ntp122
Rp123
(dp124
g8
g9
(g10
(I0
tp125
g12
tp126
Rp127
(I1
(I1
tp128
g19
I00
S'\xd4Y\xd9z=\x8c\xda?'
p129
tp130
bsg24
g25
sg26
I0
sbaa.