(lp0
F1.2680000000000002
aF1.2789101829101828
aF1.2898203658203662
aF1.3007305487305487
aF1.311640731640732
aF1.3235360087360095
aF1.3409923013923015
aF1.358448594048594
aF1.3691916522583194
aF1.377397601797602
aF1.3856035513368852
aF1.393809500876168
aF1.4019264780050018
aF1.4097780813045038
aF1.4176424032337194
aF1.4255194747216187
aF1.4334093267975347
aF1.4413119905915754
aF1.449227497335028
aF1.4581883883883875
aF1.4672614614614605
aF1.4763345345345338
aF1.4854076076076077
aF1.4944806806806807
aF1.5036262793405655
aF1.5128845171702316
aF1.5221427549998985
aF1.5302126309983455
aF1.5380084880799172
aF1.545804345161489
aF1.5535281981981985
aF1.5611681381381384
aF1.5688080780780786
aF1.5764480180180191
aF1.5840879579579585
aF1.5917278978978984
aF1.5993678378378386
aF1.6069324045672313
aF1.614478948542659
aF1.622013811135733
aF1.6295370194480963
aF1.6370486004976224
aF1.6445485812187333
aF1.6516360885229018
aF1.6576520652265763
aF1.6636755075642762
aF1.670101458654554
aF1.6770945625317133
aF1.6840977359973202
aF1.6911110008163148
aF1.6981343788164116
aF1.7051678918883177
aF1.7122115619859686
aF1.7192654111267487
aF1.7263294613917275
aF1.7334037349258846
aF1.740488253938346
aF1.7475830407026127
aF1.7548077651421905
aF1.762095971381217
aF1.7693841776202426
aF1.7766723838592686
aF1.7839605900982944
aF1.791248796337321
aF1.7985370025763465
aF1.805159489924707
aF1.8121884319101709
aF1.8192173738956348
aF1.8262463158810984
aF1.8332752578665623
aF1.8403041998520262
aF1.8473331418374894
aF1.854306365891837
aF1.8590852600915158
aF1.8631153083033014
aF1.8671486693548902
aF1.8711853473328661
aF1.8752253463305375
aF1.8792686704479507
aF1.883315323791903
aF1.8873653104759585
aF1.8914186346204604
aF1.8954753003525462
aF1.8995353118061606
aF1.9046143286143287
aF1.9104175604175602
aF1.9162207922207921
aF1.922024024024024
aF1.9278272558272556
aF1.9336304876304875
aF1.9394337194337192
aF1.9452369512369512
aF1.9508943787178687
aF1.9558901287173314
aF1.9608960221966498
aF1.9659120900805342
aF1.9709383634195299
aF1.9746868134478428
aF1.9784141080325182
aF1.9821470204249692
aF1.9858855633355803
aF1.9896297495131086
aF1.9933795917448285
aF1.9971351028566766
aF2.000885310825038
aF2.0046059890928745
aF2.008332235738991
aF2.012064063273226
aF2.0158014842429193
aF2.0195445112330512
aF2.023293156866385
aF2.0270474338036077
aF2.030807354743475
aF2.0345729324229502
aF2.038344179617352
aF2.0421211091404983
aF2.045903733844849
aF2.0496920666216543
aF2.053101932593406
aF2.056574979800056
aF2.0600980993386964
aF2.063626156126048
aF2.067159160547871
aF2.0706971230190763
aF2.074240053983826
aF2.0777879639156374
aF2.0813408633174855
aF2.0848987627219078
aF2.088461672691107
aF2.092029603817056
aF2.095682031529569
aF2.0994855802761854
aF2.1027525154020004
aF2.1059816620744454
aF2.1092108087468913
aF2.1124399554193367
aF2.115669102091782
aF2.118898248764228
aF2.1221273954366735
aF2.1253565421091194
aF2.128585688781565
aF2.132624056108592
aF2.1380758621789546
aF2.1435276682493174
aF2.14897947431968
aF2.1539505447738687
aF2.158834646985731
aF2.1637451456315575
aF2.1686822552829335
aF2.173646192843377
aF2.1786371775801063
aF2.183655431156325
aF2.186809274626594
aF2.1891426256227033
aF2.191481885561207
aF2.1938270769161337
aF2.196178222275628
aF2.198535344342674
aF2.200780929078287
aF2.20293268908127
aF2.205150989140515
aF2.207366838545563
aF2.2095802413551913
aF2.2117912016192176
aF2.21399972337853
aF2.2162058106651044
aF2.2184094675020347
aF2.2206106979035547
aF2.2228095058750625
aF2.225005895413146
aF2.227199870505606
aF2.229391435131481
aF2.23158059326107
aF2.2344179581579606
aF2.2384194763131195
aF2.242412960779154
aF2.2463984357251805
aF2.2493854047144874
aF2.2510959560561
aF2.2527184672361873
aF2.254344519222654
aF2.2559741236188136
aF2.257607292078736
aF2.2592440363075217
aF2.2608843680615847
aF2.2625282991489315
aF2.2641758414294464
aF2.2658270068151745
aF2.2674818072706113
aF2.26914025481299
aF2.2708023615125725
aF2.2724681394929434
aF2.2741376009313026
aF2.275810758058765
aF2.2774876231606562
aF2.2791682085768157
aF2.280852526701897
aF2.2825405899856754
aF2.284232410933352
aF2.286187850963939
aF2.289422419550424
aF2.292682685306335
aF2.296277044745421
aF2.299888691807248
aF2.3029175345173867
aF2.305116817518442
aF2.3071572199688815
aF2.30919885086288
aF2.3112417113101666
aF2.313285802421806
aF2.315331125310203
aF2.3174682812789387
aF2.3196868351416464
aF2.3219068387245962
aF2.3239557012658674
aF2.3259005669018626
aF2.327846545527798
aF2.3297936380993454
aF2.3317418455732692
aF2.333691168907431
aF2.3356416090607905
aF2.3375931669934054
aF2.3395458436664343
aF2.3414996400421386
aF2.343454557083884
aF2.3454105957561397
aF2.3498417384484
aF2.3535887947284566
aF2.357323038257081
aF2.361071584980498
aF2.363088713872517
aF2.3640300289869067
aF2.364972247269066
aF2.365915370019468
aF2.366859398541084
aF2.3678043341393895
aF2.3687501781223697
aF2.369696931800526
aF2.370644596486881
aF2.3716586738823833
aF2.37268205695926
aF2.373706567309191
aF2.3759890343361727
aF2.3783039847816294
aF2.38062469395284
aF2.3829511833648804
aF2.385283474640135
aF2.387621589508969
aF2.3899655498104018
aF2.3923153774927863
aF2.394671094614497
aF2.3970327233446156
aF2.3994002859636314
aF2.401505534836374
aF2.4035221334685537
aF2.405540348160203
aF2.4075601808547145
aF2.4095816334985973
aF2.4116047080414855
aF2.413629406436142
aF2.4156557306384654
aF2.416988558335382
aF2.417820780843949
aF2.418653277675012
aF2.4194860489642287
aF2.4203190948473465
aF2.4211524154602038
aF2.4219860109387263
aF2.4228198814189312
aF2.4236540270369247
aF2.424488447928903
aF2.425323144231152
aF2.426158116080048
aF2.426993363612056
aF2.427828886963734
aF2.428664686271727
aF2.429500761672772
aF2.4303371133036964
aF2.4311737413014174
aF2.432010645802943
aF2.433500424065354
aF2.4353157338959033
aF2.4371323449457134
aF2.438950258614363
aF2.440809522427479
aF2.4427636223242097
aF2.4448965260806554
aF2.4470652031198084
aF2.449238484942807
aF2.4512388309824105
aF2.453145519418327
aF2.4550535380633853
aF2.4569628883101093
aF2.4588735715529686
aF2.46078558918838
aF2.4623086334170377
aF2.4636075567572937
aF2.464907096125854
aF2.466207251961059
aF2.467508024701666
aF2.4688094147868482
aF2.470748367488375
aF2.4728333502561837
aF2.474919918034594
aF2.4770080726316888
aF2.479097815858301
aF2.4811891495280203
aF2.483282075457199
aF2.485376595464955
aF2.4874727113731794
aF2.4895704250065394
aF2.4916697381924857
aF2.4937706527612566
aF2.494756012966866
aF2.4952427382577906
aF2.49572954952377
aF2.4962164467875847
aF2.496703430072026
aF2.4971904993998915
aF2.4976776547939874
aF2.4981648962771277
aF2.498652223872135
aF2.4991396376018384
aF2.4996271374890777
aF2.500111529176585
aF2.50058572185498
aF2.501060159140923
aF2.50153484122373
aF2.5020097682929143
aF2.5024849405381824
aF2.502960358149438
aF2.5034360213167797
aF2.5039119302305046
aF2.5043880850811044
aF2.504889073227033
aF2.505398925941695
aF2.5059090716600028
aF2.5064195106346063
aF2.5069302431184437
aF2.508243783541037
aF2.5103512905033427
aF2.5124637988674605
aF2.5145813264580554
aF2.5167038911845925
aF2.518831511041846
aF2.520964204110405
aF2.523101988557184
aF2.525244882635944
aF2.527392904687807
aF2.5295460731417827
aF2.531704406515293
aF2.533867923414703
aF2.536036642535859
aF2.538210582664623
aF2.540389762677417
aF2.542574201541769
aF2.5447639183168644
aF2.546958932154099
aF2.5491592622976356
aF2.551256040272757
aF2.5523724887010606
aF2.553489758931387
aF2.5546078518714452
aF2.555726768430283
aF2.556846509518286
aF2.5579670760471838
aF2.559088468930049
aF2.5602106890813032
aF2.5613337374167156
aF2.5624576148534093
aF2.563582322309861
aF2.5647078607059055
aF2.565834230962736
aF2.566961434002909
aF2.568089470750345
aF2.5692183421303327
aF2.5703480490695285
aF2.5714785924959633
aF2.572609973339042
aF2.5737421925295467
aF2.574896484276591
aF2.576117780514448
aF2.577341496060968
aF2.578567638112018
aF2.579796213892031
aF2.581027230654149
aF2.582260695680362
aF2.5834966162816566
aF2.584734999798155
aF2.5859758535992645
aF2.5872191850838226
aF2.5884650016802433
aF2.589713310846664
aF2.5909823542460924
aF2.592332223503285
aF2.5936850105124267
aF2.595040724743864
aF2.5963993757089736
aF2.5977609729603834
aF2.599125526092197
aF2.6005611894540923
aF2.602119616425603
aF2.6036792490029517
aF2.6052400885856724
aF2.606802136575466
aF2.6083653943762055
aF2.6099298633939383
aF2.611495545036892
aF2.6130624407154794
aF2.6146305518422985
aF2.6161998798321418
aF2.617770426101998
aF2.6193421920710556
aF2.620915179160711
aF2.622489388794567
aF2.624064822398442
aF2.625641481400371
aF2.627219367230614
aF2.6301006414118144
aF2.633066698819791
aF2.636037093030683
aF2.639011833562996
aF2.641990929963108
aF2.6449743918053774
aF2.647962228692241
aF2.651078958313827
aF2.6544987834490503
aF2.6579300876425376
aF2.661372928787731
aF2.664827365168033
aF2.6682470755753602
aF2.6712987319991757
aF2.6743596820509006
aF2.6774299682500193
aF2.6805096333757903
aF2.6835987204692286
aF2.6866972728351137
aF2.6898053340440136
aF2.6929229479343255
aF2.6960501586143373
aF2.6991870104643083
aF2.702619209573002
aF2.7047325731775067
aF2.7062191133054947
aF2.707708537514973
aF2.7092008542073343
aF2.71069607181663
aF2.7121941988097364
aF2.7136952436865114
aF2.715199214979953
aF2.7167061212563652
aF2.718215971115519
aF2.7197287731908144
aF2.721244536149447
aF2.7227632686925727
aF2.724284979555474
aF2.725809677507729
aF2.727337371353377
aF2.728868069931091
aF2.730401782114346
aF2.731938516811591
aF2.7334782829664217
aF2.7350210895577556
aF2.7365669456000035
aF2.7381158601432465
aF2.7396678422734126
aF2.7416140376472335
aF2.744051212835144
aF2.7464959626682597
aF2.748948322514093
aF2.751498962363181
aF2.7541218783875814
aF2.756748425931402
aF2.759378612541817
aF2.7620124457869273
aF2.7646499332558356
aF2.767291082558716
aF2.7699359013268907
aF2.7725843972129005
aF2.7752365778905808
aF2.777892451055133
aF2.7805520244232014
aF2.7822771399411463
aF2.7839319920841645
aF2.7855891546210647
aF2.787186446504162
aF2.7875660614305895
aF2.787945797618443
aF2.788325655125833
aF2.7887056340109098
aF2.789085734331858
aF2.789465956146901
aF2.7898462995142994
aF2.79022676449235
aF2.7906073511393883
aF2.7909880595137864
aF2.791368889673954
aF2.7917498416783375
aF2.7921309155854215
aF2.792512111453728
aF2.7928934293418153
aF2.7932748693082807
aF2.7936564314117587
aF2.7940381157109204
aF2.7944199222644754
aF2.794801851131171
aF2.7951839023697915
aF2.795566076039159
aF2.795948372198134
aF2.796330790905614
aF2.7967133322205346
aF2.797095996201869
aF2.797478782908628
aF2.797861692399861
aF2.7982447247346545
aF2.798627879972134
aF2.799011158171462
aF2.799394559391838
aF2.7997780836925026
aF2.8005651370896407
aF2.8048446368922852
aF2.8091425618035446
aF2.8134590310722913
aF2.817794164978676
aF2.8221480848452964
aF2.826520913048519
aF2.8309127730299406
aF2.835323789308009
aF2.839754087489787
aF2.843213748845961
aF2.8452148058473674
aF2.8472198023143465
aF2.849228749891754
aF2.851332209887942
aF2.8534958131697943
aF2.855663239119591
aF2.8578344978771604
aF2.860009599618224
aF2.862188554554557
aF2.864371372934147
aF2.8665580650413522
aF2.8687486411970693
aF2.8696614356972394
aF2.8683613321318875
aF2.8670612285665356
aF2.8657611250011836
aF2.864461021435832
aF2.86316091787048
aF2.8618608143051283
aF2.8605607107397764
aF2.8592606071744244
aF2.8579605036090725
aF2.8566604000437206
aF2.8553602964783686
aF2.8540601929130167
aF2.8527600893476652
aF2.8514599857823133
aF2.8501598822169614
aF2.8488597786516094
aF2.8475596750862575
aF2.8462595715209056
aF2.8449594679555537
aF2.8436593643902017
aF2.8423592608248502
aF2.8410591572594983
aF2.8397590536941464
aF2.8384589501287945
aF2.8371588465634425
aF2.8358587429980906
aF2.8345586394327387
aF2.833258535867387
aF2.8319584323020353
aF2.8306583287366833
aF2.8293582251713314
aF2.8280581216059795
aF2.8267580180406275
aF2.8254579144752756
aF2.8241578109099237
aF2.822857707344572
aF2.8215576037792203
aF2.8202575002138683
aF2.8189573966485164
aF2.8176572930831645
aF2.8163571895178126
aF2.8150570859524606
aF2.8137569823871087
aF2.8124568788217568
aF2.8111567752564053
aF2.8098566716910534
aF2.8085565681257014
aF2.8072564645603495
aF2.8059563609949976
aF2.8046562574296456
aF2.8033561538642937
aF2.802056050298942
aF2.80075594673359
aF2.7994558431682384
aF2.7981557396028864
aF2.7968556360375345
aF2.7955555324721826
aF2.7942554289068307
aF2.7929553253414787
aF2.7916552217761272
aF2.7903551182107753
aF2.7890550146454234
aF2.7877549110800715
aF2.7864548075147195
aF2.7851547039493676
aF2.7838546003840157
aF2.7825544968186637
aF2.781254393253312
aF2.7799542896879603
aF2.7786541861226084
aF2.7773540825572565
aF2.7760539789919045
aF2.7747538754265526
aF2.7734537718612007
aF2.7721536682958487
aF2.770853564730497
aF2.7695534611651453
aF2.7682533575997934
aF2.7669532540344415
aF2.7660997044041093
aF2.766325654450652
aF2.7665484760904233
aF2.766768169323422
aF2.7669847341496476
aF2.767198170569101
aF2.7674084785817827
aF2.7676156581876916
aF2.767819709386828
aF2.7680206321791925
aF2.7682184265647845
aF2.7684130925436046
aF2.7686046301156515
aF2.7687930392809266
aF2.7689783200394293
aF2.7691604723911594
aF2.7693394963361175
aF2.769515391874303
aF2.769688159005716
aF2.769857797730357
aF2.7700243080482254
aF2.7701876899593216
aF2.7703479434636455
aF2.770505068561197
aF2.7706590652519765
aF2.7708099335359835
aF2.7709576734132177
aF2.7711022848836797
aF2.77124376794737
aF2.771382122604287
aF2.7715173488544322
aF2.771649446697805
aF2.7717784161344055
aF2.7719042571642336
aF2.772026969787289
aF2.7721465540035726
aF2.7722630098130834
aF2.7723763372158228
aF2.7724865362117885
aF2.7725936068009824
aF2.7726975489834045
aF2.772798362759054
aF2.772896048127931
aF2.7729906050900355
aF2.773082033645368
aF2.773170333793928
aF2.7732555055357153
aF2.773337548870731
aF2.7734164637989736
aF2.7734922503204444
aF2.7735649084351426
aF2.7736344381430684
aF2.773700839444222
aF2.773764112338603
aF2.773824256826212
aF2.7738812729070483
aF2.7739351605811127
aF2.7739859198484047
aF2.774033550708924
aF2.774078053162671
aF2.774119427209646
aF2.7741576728498485
aF2.774192790083279
aF2.7742247789099364
aF2.774253639329822
aF2.774279371342935
aF2.7743019749492754
aF2.774321450148844
aF2.7743377969416403
aF2.774351015327664
aF2.774361105306915
aF2.7743680668793944
aF2.774371900045101
aF2.774372604804036
aF2.7743701811561974
aF2.774364629101587
aF2.7743559486402045
aF2.774344139772049
aF2.774329202497122
aF2.7743111368154225
aF2.7742899427269503
aF2.7742656202317058
aF2.7742381693296894
aF2.7742075900209002
aF2.774173882305339
aF2.774137046183005
aF2.774097081653899
aF2.7740539887180207
aF2.7740077673753696
aF2.7739584176259466
aF2.773905939469751
aF2.7738503329067834
aF2.773791597937043
aF2.7737297345605305
aF2.773664742777246
aF2.7735966225871884
aF2.773525373990359
aF2.773450996986757
aF2.773373491576383
aF2.7732928577592366
aF2.773209095535317
aF2.773122204904626
aF2.7730321858671623
aF2.7729390384229267
aF2.7728427625719183
aF2.7727433583141377
aF2.7726408256495847
aF2.7725351645782594
aF2.772426375100162
aF2.772314457215292
aF2.7721994109236494
aF2.772081236225235
aF2.7719599331200477
aF2.7718355016080887
aF2.771707941689357
aF2.7715772533638523
aF2.771443436631576
aF2.7713064914925276
aF2.7711664179467066
aF2.771023215994113
aF2.770876885634747
aF2.770727426868609
aF2.7705748396956986
aF2.7704191241160157
aF2.770260280129561
aF2.7700983077363333
aF2.769933206936333
aF2.7697649777295608
aF2.7695936201160167
aF2.7694191340957
aF2.7692415196686104
aF2.769060776834749
aF2.768876905594115
aF2.768689905946709
aF2.76849977789253
aF2.7683065214315796
aF2.7681101365638563
aF2.76791062328936
aF2.7677079816080923
aF2.7675022115200525
aF2.7672933130252395
aF2.7670812861236547
aF2.766866130815297
aF2.7666478471001676
aF2.7664264349782655
aF2.766201894449591
aF2.765974225514144
aF2.765743428171925
aF2.765509502422934
aF2.7652724482671704
aF2.765032265704634
aF2.7647889547353257
aF2.7645425153592447
aF2.7642929475763918
aF2.7640402513867666
aF2.7637844267903686
aF2.7635254737871984
aF2.7632633923772563
aF2.7629981825605414
aF2.762729844337054
aF2.7624583777067944
aF2.7621837826697626
aF2.7619060592259586
aF2.761625207375382
aF2.761341227118033
aF2.761054118453912
aF2.7607638813830184
aF2.7604705159053524
aF2.760174022020914
aF2.7598743997297035
aF2.7595716490317206
aF2.759265769926965
aF2.758956762415438
aF2.758644626497138
aF2.7583293621720655
aF2.7580109694402206
aF2.757689448301604
aF2.7573647987562144
aF2.7570370208040527
aF2.7567061144451186
aF2.7563720796794122
aF2.7560349165069336
aF2.7556946249276826
aF2.7553512049416593
aF2.7550046565488633
aF2.7546549797492954
aF2.754302174542955
aF2.753946240929842
aF2.753587178909957
aF2.7532249884832996
aF2.7528596696498697
aF2.7524912224096676
aF2.752119646762693
aF2.751744942708946
aF2.751367110248427
aF2.750986149381135
aF2.750602060107072
aF2.750214842426235
aF2.749824496338627
aF2.749431021844246
aF2.7490344189430926
aF2.748634687635167
aF2.748231827920469
aF2.747825839798999
aF2.7474167232707565
aF2.7470044783357412
aF2.746589104993954
aF2.7461706032453943
aF2.7457489730900626
aF2.745324214527958
aF2.7448963275590814
aF2.7444653121834324
aF2.744031168401011
aF2.7435938962118174
aF2.743153495615851
aF2.7427099666131127
aF2.742263309203602
aF2.741813523387319
aF2.7413606091642637
aF2.740904566534436
aF2.7404453954978356
aF2.739983096054463
aF2.7395176682043183
aF2.739049111947401
aF2.738577427283712
aF2.73810261421325
aF2.7376246727360156
aF2.7371436028520093
aF2.7366594045612302
aF2.7361720778636793
aF2.7356816227593557
aF2.73518803924826
aF2.734691327330392
aF2.7341914870057513
aF2.733688518274338
aF2.733182421136153
aF2.7326731955911954
aF2.7321608416394656
aF2.7316453592809635
aF2.7311267485156887
aF2.7306050093436416
aF2.730080141764822
aF2.7295521457792304
aF2.729021021386867
aF2.72848676858773
aF2.7279493873818215
aF2.7274088777691405
aF2.726865239749687
aF2.7263184733234613
aF2.7257685784904635
aF2.725215555250693
aF2.72465940360415
aF2.7241001235508353
aF2.723537715090748
aF2.722972178223888
aF2.7224035129502555
aF2.7218317192698516
aF2.721256797182675
aF2.7206787466887254
aF2.720097567788004
aF2.71951326048051
aF2.718925824766244
aF2.718335260645205
aF2.7177415681173946
aF2.7171447471828114
aF2.716544797841456
aF2.715941720093328
aF2.7153355139384274
aF2.714726179376755
aF2.7141137164083102
aF2.7134981250330927
aF2.7128794052511034
aF2.7122575570623413
aF2.711632580466807
aF2.7110044754645
aF2.7103732420554216
aF2.70973888023957
aF2.7091013900169463
aF2.7084607713875504
aF2.707817024351382
aF2.707170148908441
aF2.706520145058728
aF2.705867012802243
aF2.705210752138985
aF2.704551363068955
aF2.703888845592153
aF2.7032231997085776
aF2.7025544254182305
aF2.701882522721111
aF2.701207491617219
aF2.700529332106555
aF2.699848044189119
aF2.69916362786491
aF2.698476083133929
aF2.6977854099961753
aF2.6970916084516494
aF2.696394678500351
aF2.6956946201422807
aF2.694991433377438
aF2.6942851182058227
aF2.693575674627435
aF2.692863102642275
aF2.6921474022503427
aF2.6914285734516383
aF2.6907066162461613
aF2.689981530633912
aF2.6892533166148906
aF2.688521974189096
aF2.68778750335653
aF2.687049904117192
aF2.6863091764710805
aF2.6855653204181973
aF2.6848183359585414
aF2.6840682230921136
aF2.683314981818913
aF2.68255861213894
aF2.681799114052195
aF2.681036487558678
aF2.6802707326583883
aF2.6795018493513263
aF2.6787298376374915
aF2.677954697516885
aF2.6771764289895055
aF2.6763950320553542
aF2.6756105067144302
aF2.6748228529667344
aF2.674032070812266
aF2.673238160251025
aF2.6724411212830117
aF2.671640953908226
aF2.6708376581266684
aF2.670031233938338
aF2.6692216813432355
aF2.6684090003413603
aF2.6675931909327133
aF2.6667742531172935
aF2.665952186895102
aF2.665126992266138
aF2.664298669230401
aF2.663467217787892
aF2.6626326379386107
aF2.661794929682557
aF2.6609540930197313
aF2.6601101279501327
aF2.659263034473762
aF2.6584128125906195
aF2.657559462300704
aF2.656702983604016
aF2.655843376500556
aF2.6549806409903236
aF2.654114777073319
aF2.653245784749542
aF2.6523736640189925
aF2.651498414881671
aF2.6506200373375766
aF2.64973853138671
aF2.648853897029071
aF2.64796613426466
aF2.647075243093477
aF2.6461812235155207
aF2.645284075530793
aF2.6443837991392924
aF2.6434803943410197
aF2.6425738611359746
aF2.6416641995241563
aF2.6407514095055666
aF2.6398354910802047
aF2.63891644424807
aF2.6379942690091633
aF2.6370689653634836
aF2.6361405333110324
aF2.6352089728518084
aF2.6342742839858118
aF2.6333364667130432
aF2.6323955210335024
aF2.631451446947189
aF2.6305042444541034
aF2.629553913554245
a.